target datalayout = "e-m:e-p270:32:32-p271:32:32-p272:64:64-i64:64-i128:128-f80:128-n8:16:32:64-S128"
target triple = "x86_64-pc-linux-gnu"

%"class.cmsys::CommandLineArguments" = type <{ ptr, %"class.std::__cxx11::basic_string", i32, i8, [3 x i8] }>
%"class.std::__cxx11::basic_string" = type { %"struct.std::__cxx11::basic_string<char>::_Alloc_hider", i64, %union.anon }
%"struct.std::__cxx11::basic_string<char>::_Alloc_hider" = type { ptr }
%union.anon = type { i64, [8 x i8] }
%"class.cmsys::CommandLineArgumentsInternal" = type { %"class.cmsys::CommandLineArgumentsVectorOfStrings", %"class.std::__cxx11::basic_string", %"class.cmsys::CommandLineArgumentsMapOfStrucs", ptr, ptr, i64, %"class.cmsys::CommandLineArgumentsVectorOfStrings" }
%"class.cmsys::CommandLineArgumentsMapOfStrucs" = type { %"class.std::map" }
%"class.std::map" = type { %"class.std::_Rb_tree" }
%"class.std::_Rb_tree" = type { %"struct.std::_Rb_tree<std::__cxx11::basic_string<char>, std::pair<const std::__cxx11::basic_string<char>, cmsys::CommandLineArgumentsCallbackStructure>, std::_Select1st<std::pair<const std::__cxx11::basic_string<char>, cmsys::CommandLineArgumentsCallbackStructure>>, std::less<std::__cxx11::basic_string<char>>>::_Rb_tree_impl" }
%"struct.std::_Rb_tree<std::__cxx11::basic_string<char>, std::pair<const std::__cxx11::basic_string<char>, cmsys::CommandLineArgumentsCallbackStructure>, std::_Select1st<std::pair<const std::__cxx11::basic_string<char>, cmsys::CommandLineArgumentsCallbackStructure>>, std::less<std::__cxx11::basic_string<char>>>::_Rb_tree_impl" = type { [8 x i8], %"struct.std::_Rb_tree_header" }
%"struct.std::_Rb_tree_header" = type { %"struct.std::_Rb_tree_node_base", i64 }
%"struct.std::_Rb_tree_node_base" = type { i32, ptr, ptr, ptr }
%"class.cmsys::CommandLineArgumentsVectorOfStrings" = type { %"class.std::vector" }
%"class.std::vector" = type { %"struct.std::_Vector_base" }
%"struct.std::_Vector_base" = type { %"struct.std::_Vector_base<std::__cxx11::basic_string<char>, std::allocator<std::__cxx11::basic_string<char>>>::_Vector_impl" }
%"struct.std::_Vector_base<std::__cxx11::basic_string<char>, std::allocator<std::__cxx11::basic_string<char>>>::_Vector_impl" = type { %"struct.std::_Vector_base<std::__cxx11::basic_string<char>, std::allocator<std::__cxx11::basic_string<char>>>::_Vector_impl_data" }
%"struct.std::_Vector_base<std::__cxx11::basic_string<char>, std::allocator<std::__cxx11::basic_string<char>>>::_Vector_impl_data" = type { ptr, ptr, ptr }

; Function Attrs: noinline noreturn nounwind uwtable
define linkonce_odr hidden void @__clang_call_terminate(ptr noundef %0) #15 comdat {
  %2 = call ptr @__cxa_begin_catch(ptr %0) #3
  call void @_ZSt9terminatev() #21
  unreachable
}

; Function Attrs: mustprogress nounwind uwtable
define available_externally noundef ptr @_ZNKSt7__cxx1112basic_stringIcSt11char_traitsIcESaIcEE7_M_dataEv(ptr noundef nonnull align 8 dereferenceable(32) %0) #5 align 2 {
  %2 = alloca ptr, align 8
  store ptr %0, ptr %2, align 8, !tbaa !20
  %3 = load ptr, ptr %2, align 8
  %4 = getelementptr inbounds nuw %"class.std::__cxx11::basic_string", ptr %3, i32 0, i32 0
  %5 = getelementptr inbounds nuw %"struct.std::__cxx11::basic_string<char>::_Alloc_hider", ptr %4, i32 0, i32 0
  %6 = load ptr, ptr %5, align 8, !tbaa !213
  ret ptr %6
}

; Function Attrs: mustprogress nounwind uwtable
define linkonce_odr dso_local noundef nonnull align 8 dereferenceable(32) ptr @_ZNSt6vectorINSt7__cxx1112basic_stringIcSt11char_traitsIcESaIcEEESaIS5_EEixEm(ptr noundef nonnull align 8 dereferenceable(24) %0, i64 noundef %1) #5 comdat align 2 {
  %3 = alloca ptr, align 8
  %4 = alloca i64, align 8
  store ptr %0, ptr %3, align 8, !tbaa !48
  store i64 %1, ptr %4, align 8, !tbaa !68
  %5 = load ptr, ptr %3, align 8
  %6 = getelementptr inbounds nuw %"struct.std::_Vector_base", ptr %5, i32 0, i32 0
  %7 = getelementptr inbounds nuw %"struct.std::_Vector_base<std::__cxx11::basic_string<char>, std::allocator<std::__cxx11::basic_string<char>>>::_Vector_impl_data", ptr %6, i32 0, i32 0
  %8 = load ptr, ptr %7, align 8, !tbaa !50
  %9 = load i64, ptr %4, align 8, !tbaa !68
  %10 = getelementptr inbounds nuw %"class.std::__cxx11::basic_string", ptr %8, i64 %9
  ret ptr %10
}

; Function Attrs: mustprogress nounwind uwtable
define available_externally noundef ptr @_ZNKSt7__cxx1112basic_stringIcSt11char_traitsIcESaIcEE5c_strEv(ptr noundef nonnull align 8 dereferenceable(32) %0) #5 align 2 personality ptr @__gxx_personality_v0 {
  %2 = alloca ptr, align 8
  store ptr %0, ptr %2, align 8, !tbaa !20
  %3 = load ptr, ptr %2, align 8
  %4 = invoke noundef ptr @_ZNKSt7__cxx1112basic_stringIcSt11char_traitsIcESaIcEE7_M_dataEv(ptr noundef nonnull align 8 dereferenceable(32) %3)
          to label %5 unwind label %6

5:                                                ; preds = %1
  ret ptr %4

6:                                                ; preds = %1
  %7 = landingpad { ptr, i32 }
          catch ptr null
  %8 = extractvalue { ptr, i32 } %7, 0
  call void @__clang_call_terminate(ptr %8) #21
  unreachable
}

; Function Attrs: mustprogress nounwind uwtable
define available_externally noundef i64 @_ZNKSt7__cxx1112basic_stringIcSt11char_traitsIcESaIcEE4sizeEv(ptr noundef nonnull align 8 dereferenceable(32) %0) #5 align 2 {
  %2 = alloca ptr, align 8
  store ptr %0, ptr %2, align 8, !tbaa !20
  %3 = load ptr, ptr %2, align 8
  %4 = getelementptr inbounds nuw %"class.std::__cxx11::basic_string", ptr %3, i32 0, i32 1
  %5 = load i64, ptr %4, align 8, !tbaa !76
  ret i64 %5
}

; Function Attrs: mustprogress nounwind uwtable
define linkonce_odr dso_local noundef i64 @_ZNKSt6vectorINSt7__cxx1112basic_stringIcSt11char_traitsIcESaIcEEESaIS5_EE4sizeEv(ptr noundef nonnull align 8 dereferenceable(24) %0) #5 comdat align 2 {
  %2 = alloca ptr, align 8
  store ptr %0, ptr %2, align 8, !tbaa !48
  %3 = load ptr, ptr %2, align 8
  %4 = getelementptr inbounds nuw %"struct.std::_Vector_base", ptr %3, i32 0, i32 0
  %5 = getelementptr inbounds nuw %"struct.std::_Vector_base<std::__cxx11::basic_string<char>, std::allocator<std::__cxx11::basic_string<char>>>::_Vector_impl_data", ptr %4, i32 0, i32 1
  %6 = load ptr, ptr %5, align 8, !tbaa !66
  %7 = getelementptr inbounds nuw %"struct.std::_Vector_base", ptr %3, i32 0, i32 0
  %8 = getelementptr inbounds nuw %"struct.std::_Vector_base<std::__cxx11::basic_string<char>, std::allocator<std::__cxx11::basic_string<char>>>::_Vector_impl_data", ptr %7, i32 0, i32 0
  %9 = load ptr, ptr %8, align 8, !tbaa !50
  %10 = ptrtoint ptr %6 to i64
  %11 = ptrtoint ptr %9 to i64
  %12 = sub i64 %10, %11
  %13 = sdiv exact i64 %12, 32
  ret i64 %13
}

; Function Attrs: mustprogress uwtable
define dso_local void @_ZN5cmsys20CommandLineArguments18GetUnusedArgumentsEPiPPPc(ptr noundef nonnull align 8 dereferenceable(45) %0, ptr noundef %1, ptr noundef %2) #4 align 2 {
  %4 = alloca ptr, align 8
  %5 = alloca ptr, align 8
  %6 = alloca ptr, align 8
  %7 = alloca i64, align 8
  %8 = alloca i64, align 8
  %9 = alloca ptr, align 8
  %10 = alloca i32, align 4
  %11 = alloca ptr, align 8
  store ptr %0, ptr %4, align 8, !tbaa !4
  store ptr %1, ptr %5, align 8, !tbaa !86
  store ptr %2, ptr %6, align 8, !tbaa !88
  %12 = load ptr, ptr %4, align 8
  call void @llvm.lifetime.start.p0(i64 8, ptr %7) #3
  %13 = getelementptr inbounds nuw %"class.cmsys::CommandLineArguments", ptr %12, i32 0, i32 0
  %14 = load ptr, ptr %13, align 8, !tbaa !9
  %15 = getelementptr inbounds nuw %"class.cmsys::CommandLineArgumentsInternal", ptr %14, i32 0, i32 6
  %16 = call noundef i64 @_ZNKSt6vectorINSt7__cxx1112basic_stringIcSt11char_traitsIcESaIcEEESaIS5_EE4sizeEv(ptr noundef nonnull align 8 dereferenceable(24) %15) #3
  %17 = add i64 %16, 1
  store i64 %17, ptr %7, align 8, !tbaa !68
  call void @llvm.lifetime.start.p0(i64 8, ptr %8) #3
  call void @llvm.lifetime.start.p0(i64 8, ptr %9) #3
  %18 = load i64, ptr %7, align 8, !tbaa !68
  %19 = call { i64, i1 } @llvm.umul.with.overflow.i64(i64 %18, i64 8)
  %20 = extractvalue { i64, i1 } %19, 1
  %21 = extractvalue { i64, i1 } %19, 0
  %22 = select i1 %20, i64 -1, i64 %21
  %23 = call noalias noundef nonnull ptr @_Znam(i64 noundef %22) #20
  store ptr %23, ptr %9, align 8, !tbaa !44
  %24 = getelementptr inbounds nuw %"class.cmsys::CommandLineArguments", ptr %12, i32 0, i32 0
  %25 = load ptr, ptr %24, align 8, !tbaa !9
  %26 = getelementptr inbounds nuw %"class.cmsys::CommandLineArgumentsInternal", ptr %25, i32 0, i32 1
  %27 = call noundef i64 @_ZNKSt7__cxx1112basic_stringIcSt11char_traitsIcESaIcEE4sizeEv(ptr noundef nonnull align 8 dereferenceable(32) %26) #3
  %28 = add i64 %27, 1
  %29 = call noalias noundef nonnull ptr @_Znam(i64 noundef %28) #20
  %30 = load ptr, ptr %9, align 8, !tbaa !44
  %31 = getelementptr inbounds ptr, ptr %30, i64 0
  store ptr %29, ptr %31, align 8, !tbaa !42
  %32 = load ptr, ptr %9, align 8, !tbaa !44
  %33 = getelementptr inbounds ptr, ptr %32, i64 0
  %34 = load ptr, ptr %33, align 8, !tbaa !42
  %35 = getelementptr inbounds nuw %"class.cmsys::CommandLineArguments", ptr %12, i32 0, i32 0
  %36 = load ptr, ptr %35, align 8, !tbaa !9
  %37 = getelementptr inbounds nuw %"class.cmsys::CommandLineArgumentsInternal", ptr %36, i32 0, i32 1
  %38 = call noundef ptr @_ZNKSt7__cxx1112basic_stringIcSt11char_traitsIcESaIcEE5c_strEv(ptr noundef nonnull align 8 dereferenceable(32) %37) #3
  %39 = call ptr @strcpy(ptr noundef %34, ptr noundef %38) #3
  call void @llvm.lifetime.start.p0(i64 4, ptr %10) #3
  store i32 1, ptr %10, align 4, !tbaa !43
  store i64 0, ptr %8, align 8, !tbaa !68
  br label %40

40:                                               ; preds = %71, %3
  %41 = load i64, ptr %8, align 8, !tbaa !68
  %42 = getelementptr inbounds nuw %"class.cmsys::CommandLineArguments", ptr %12, i32 0, i32 0
  %43 = load ptr, ptr %42, align 8, !tbaa !9
  %44 = getelementptr inbounds nuw %"class.cmsys::CommandLineArgumentsInternal", ptr %43, i32 0, i32 6
  %45 = call noundef i64 @_ZNKSt6vectorINSt7__cxx1112basic_stringIcSt11char_traitsIcESaIcEEESaIS5_EE4sizeEv(ptr noundef nonnull align 8 dereferenceable(24) %44) #3
  %46 = icmp ult i64 %41, %45
  br i1 %46, label %47, label %74

47:                                               ; preds = %40
  call void @llvm.lifetime.start.p0(i64 8, ptr %11) #3
  %48 = getelementptr inbounds nuw %"class.cmsys::CommandLineArguments", ptr %12, i32 0, i32 0
  %49 = load ptr, ptr %48, align 8, !tbaa !9
  %50 = getelementptr inbounds nuw %"class.cmsys::CommandLineArgumentsInternal", ptr %49, i32 0, i32 6
  %51 = load i64, ptr %8, align 8, !tbaa !68
  %52 = call noundef nonnull align 8 dereferenceable(32) ptr @_ZNSt6vectorINSt7__cxx1112basic_stringIcSt11char_traitsIcESaIcEEESaIS5_EEixEm(ptr noundef nonnull align 8 dereferenceable(24) %50, i64 noundef %51) #3
  store ptr %52, ptr %11, align 8, !tbaa !20
  %53 = load ptr, ptr %11, align 8, !tbaa !20
  %54 = call noundef i64 @_ZNKSt7__cxx1112basic_stringIcSt11char_traitsIcESaIcEE4sizeEv(ptr noundef nonnull align 8 dereferenceable(32) %53) #3
  %55 = add i64 %54, 1
  %56 = call noalias noundef nonnull ptr @_Znam(i64 noundef %55) #20
  %57 = load ptr, ptr %9, align 8, !tbaa !44
  %58 = load i32, ptr %10, align 4, !tbaa !43
  %59 = sext i32 %58 to i64
  %60 = getelementptr inbounds ptr, ptr %57, i64 %59
  store ptr %56, ptr %60, align 8, !tbaa !42
  %61 = load ptr, ptr %9, align 8, !tbaa !44
  %62 = load i32, ptr %10, align 4, !tbaa !43
  %63 = sext i32 %62 to i64
  %64 = getelementptr inbounds ptr, ptr %61, i64 %63
  %65 = load ptr, ptr %64, align 8, !tbaa !42
  %66 = load ptr, ptr %11, align 8, !tbaa !20
  %67 = call noundef ptr @_ZNKSt7__cxx1112basic_stringIcSt11char_traitsIcESaIcEE5c_strEv(ptr noundef nonnull align 8 dereferenceable(32) %66) #3
  %68 = call ptr @strcpy(ptr noundef %65, ptr noundef %67) #3
  %69 = load i32, ptr %10, align 4, !tbaa !43
  %70 = add nsw i32 %69, 1
  store i32 %70, ptr %10, align 4, !tbaa !43
  call void @llvm.lifetime.end.p0(i64 8, ptr %11) #3
  br label %71

71:                                               ; preds = %47
  %72 = load i64, ptr %8, align 8, !tbaa !68
  %73 = add i64 %72, 1
  store i64 %73, ptr %8, align 8, !tbaa !68
  br label %40, !llvm.loop !91

74:                                               ; preds = %40
  %75 = load i32, ptr %10, align 4, !tbaa !43
  %76 = load ptr, ptr %5, align 8, !tbaa !86
  store i32 %75, ptr %76, align 4, !tbaa !43
  %77 = load ptr, ptr %9, align 8, !tbaa !44
  %78 = load ptr, ptr %6, align 8, !tbaa !88
  store ptr %77, ptr %78, align 8, !tbaa !44
  call void @llvm.lifetime.end.p0(i64 4, ptr %10) #3
  call void @llvm.lifetime.end.p0(i64 8, ptr %9) #3
  call void @llvm.lifetime.end.p0(i64 8, ptr %8) #3
  call void @llvm.lifetime.end.p0(i64 8, ptr %7) #3
  ret void
}