; Function Attrs: mustprogress uwtable
define dso_local void @_ZN5cmsys20CommandLineArguments18GetUnusedArgumentsEPiPPPc(ptr noundef nonnull readonly align 8 captures(none) dereferenceable(45) %0, ptr noundef writeonly captures(none) %1, ptr noundef writeonly captures(none) %2) local_unnamed_addr #3 align 2 personality ptr @__gxx_personality_v0 {
  %4 = load ptr, ptr %0, align 8, !tbaa !22
  %5 = getelementptr inbounds nuw i8, ptr %4, i64 128
  %6 = getelementptr inbounds nuw i8, ptr %4, i64 136
  %7 = load ptr, ptr %6, align 8, !tbaa !33
  %8 = load ptr, ptr %5, align 8, !tbaa !30
  %9 = ptrtoint ptr %7 to i64
  %10 = ptrtoint ptr %8 to i64
  %11 = sub i64 %9, %10
  %12 = ashr exact i64 %11, 5
  %13 = add nsw i64 %12, 1
  %14 = icmp ugt i64 %13, 2305843009213693951
  %15 = shl nsw i64 %13, 3
  %16 = select i1 %14, i64 -1, i64 %15
  %17 = tail call noalias noundef nonnull ptr @_Znam(i64 noundef %16) #27
  %18 = getelementptr inbounds nuw i8, ptr %4, i64 24
  %19 = getelementptr inbounds nuw i8, ptr %4, i64 32
  %20 = load i64, ptr %19, align 8, !tbaa !10
  %21 = add i64 %20, 1
  %22 = tail call noalias noundef nonnull ptr @_Znam(i64 noundef %21) #27
  store ptr %22, ptr %17, align 8, !tbaa !49
  %23 = load ptr, ptr %18, align 8, !tbaa !29
  %24 = tail call ptr @strcpy(ptr noundef nonnull dereferenceable(1) %22, ptr noundef nonnull dereferenceable(1) %23) #29
  %.not = icmp eq ptr %7, %8
  br i1 %.not, label %._crit_edge, label %.lr.ph

.lr.ph:                                           ; preds = %3, %.lr.ph
  %indvars.iv = phi i64 [ %indvars.iv.next, %.lr.ph ], [ 1, %3 ]
  %.019 = phi i64 [ %33, %.lr.ph ], [ 0, %3 ]
  %25 = getelementptr inbounds nuw %"class.std::__cxx11::basic_string", ptr %8, i64 %.019
  %26 = getelementptr inbounds nuw i8, ptr %25, i64 8
  %27 = load i64, ptr %26, align 8, !tbaa !10
  %28 = add i64 %27, 1
  %29 = tail call noalias noundef nonnull ptr @_Znam(i64 noundef %28) #27
  %30 = getelementptr inbounds nuw ptr, ptr %17, i64 %indvars.iv
  store ptr %29, ptr %30, align 8, !tbaa !49
  %31 = load ptr, ptr %25, align 8, !tbaa !29
  %32 = tail call ptr @strcpy(ptr noundef nonnull dereferenceable(1) %29, ptr noundef nonnull dereferenceable(1) %31) #29
  %indvars.iv.next = add nuw nsw i64 %indvars.iv, 1
  %33 = add nuw i64 %.019, 1
  %34 = icmp ult i64 %33, %12
  br i1 %34, label %.lr.ph, label %._crit_edge.loopexit, !llvm.loop !103

._crit_edge.loopexit:                             ; preds = %.lr.ph
  %35 = trunc nuw i64 %indvars.iv.next to i32
  br label %._crit_edge

._crit_edge:                                      ; preds = %._crit_edge.loopexit, %3
  %.017.lcssa = phi i32 [ 1, %3 ], [ %35, %._crit_edge.loopexit ]
  store i32 %.017.lcssa, ptr %1, align 4, !tbaa !92
  store ptr %17, ptr %2, align 8, !tbaa !101
  ret void
}